-----BEGIN CERTIFICATE-----
MIIDuDCCAqCgAwIBAgIJAJosY5/fn9kCMA0GCSqGSIb3DQEBCwUAMIGCMQswCQYD
VQQGEwJHUjEVMBMGA1UECAwMVGhlc3NhbG9uaWtpMRUwEwYDVQQHDAxUaGVzc2Fs
b25pa2kxGDAWBgNVBAoMD0V4YW1wbGUgQ29tcGFueTEVMBMGA1UECwwMRXhhbXBs
ZSBEZXZzMRQwEgYDVQQDDAtleGFtcGxlLmNvbTAeFw0xODAzMDMyMzUxMDdaFw0y
MDAzMDIyMzUxMDdaMIGCMQswCQYDVQQGEwJHUjEVMBMGA1UECAwMVGhlc3NhbG9u
aWtpMRUwEwYDVQQHDAxUaGVzc2Fsb25pa2kxGDAWBgNVBAoMD0V4YW1wbGUgQ29t
cGFueTEVMBMGA1UECwwMRXhhbXBsZSBEZXZzMRQwEgYDVQQDDAtleGFtcGxlLmNv
bTCCASIwDQYJKoZIhvcNAQEBBQADggEPADCCAQoCggEBAN6x/pPMnicYTtiZO6Aq
zYPhYl1Gm9DbsOu0jRc6Oc582ANF3VoG3wiSPIeprQzJXC63m+HdGuIBuSymNelj
v0EgNICl5yrYqbwsMjSrgSKygbSDGTe/OBnicEUV/9nSq6S+P/YNtM9yL9FAdXcm
/TsRfO563gIVAmJYSWAHBLEVkOkkcMetoodMPeHYBJgFJrnlKqUBiOpVzHdEEeLb
7Gteb7t57LvxMsyYVh60onS4doQmnlCzmmmI7Ch6m/OSphh2e78shy9PhWOvT57C
PjbhS06BZvl9ewaqBW6GnvoPqldfn53Bs5erRKwVmAKvPv+CyyxRMYOW4mDd+R1Q
PVsCAwEAAaMvMC0wDAYDVR0TBAUwAwEB/zAdBgNVHQ4EFgQUHYD3CN0KOvEJWp2l
H96+OzuALLcwDQYJKoZIhvcNAQELBQADggEBAAjyVT5CEJx6NKHfe4U5vuHzFDw3
oB2I6ho+GXU2LO7kpQSVi91fY9svBIj9VEUqrqaMfHw1ix/6qq4+wJCxpTE2yDtr
Xv1NmUjwYBEcM10X17LuDH4NXI7pU8D7ScgWN4EYm5JedDtdo6lRWg1WdabUekZW
Bv6Hv76EXoE+VAxQRJU85kYyUoZnvrYpqBkpXzgGrnyMdDCPahtc+GgHUFM/xxUi
IVFnenPYT0hKHbjuyC1szJKW+CH+V0KFFpUFhbvdUj2WjMElu/o88zC8FYFqdqtc
wkIrMTNut+6a3k1RQiW1r7uv6AFc9P6XRN/qUGHrcYL3n4F8hEMiwb2zRUs=
-----END CERTIFICATE-----
Certificate:
    Data:
        Version: 3 (0x2)
        Serial Number: 1 (0x1)
    Signature Algorithm: sha256WithRSAEncryption
        Issuer: C=GR, ST=Thessaloniki, L=Thessaloniki, O=Example Company, OU=Example Devs, CN=example.com
        Validity
            Not Before: Mar  3 23:51:20 2018 GMT
            Not After : Mar  3 23:51:20 2019 GMT
        Subject: C=GR, ST=Thessaloniki, O=Exampe.ltd, OU=Devs Examples.ltd, CN=example.com
        Subject Public Key Info:
            Public Key Algorithm: rsaEncryption
                Public-Key: (2048 bit)
                Modulus:
                    00:f4:c2:4f:b2:44:4f:9b:7c:48:86:79:24:16:f9:
                    cd:b2:43:f8:54:bb:91:18:f9:7b:ed:52:8b:3c:59:
                    c6:18:2c:72:87:c0:e8:96:be:61:6d:20:b6:95:40:
                    09:1e:d3:0f:f4:34:12:21:75:34:39:43:d1:20:f5:
                    ae:0a:a2:e5:65:69:26:c7:22:30:4b:12:72:14:78:
                    b9:81:83:31:10:72:48:10:b7:6e:7a:f4:ba:0a:b2:
                    31:d3:12:90:8b:fe:fb:57:8b:e0:53:5a:af:4e:28:
                    be:8a:1f:15:50:b5:f6:74:28:23:67:12:1b:01:25:
                    11:67:78:7d:f8:38:88:2d:dc:05:19:9d:85:d7:dd:
                    55:ee:b2:46:53:18:01:c1:9b:97:8a:7a:95:2c:a1:
                    e0:07:4b:85:8e:60:d1:45:12:a7:ae:bd:43:9f:d9:
                    26:3c:4c:56:36:83:b6:01:3f:53:d4:5f:01:6e:52:
                    6c:ab:3d:1a:13:46:38:5c:bf:a7:c6:16:64:58:45:
                    24:43:59:2e:80:21:d5:db:68:ef:51:ef:0f:37:bc:
                    f5:21:6d:1e:19:8f:bb:64:5e:52:c1:cb:06:cc:b8:
                    08:cc:f7:cc:d0:24:34:25:5c:f6:e6:82:92:cf:61:
                    80:5a:c2:58:18:b2:69:31:8b:e4:c8:a9:97:56:52:
                    a1:ab
                Exponent: 65537 (0x10001)
        X509v3 extensions:
            X509v3 Basic Constraints: 
                CA:FALSE
            X509v3 Subject Alternative Name: 
                DNS:www.example.com, DNS:api.example.com, DNS:localhost
            X509v3 Subject Key Identifier: 
                59:24:C3:4E:A9:5A:71:6C:70:DC:B7:47:D9:8D:96:83:2C:50:12:CB
    Signature Algorithm: sha256WithRSAEncryption
         9d:90:cf:9e:1f:81:8a:05:a3:50:f2:71:dc:90:13:50:b6:72:
         8e:09:93:66:0f:b3:0e:d9:c0:94:04:78:74:a7:92:84:2f:db:
         65:1c:a1:35:3f:50:e2:9a:1e:bc:c8:ed:23:4f:63:b6:9d:79:
         2b:99:9f:31:fc:1c:11:63:9c:36:e3:5b:56:28:3a:b6:31:a7:
         fc:9b:46:39:c4:a8:93:bd:38:2a:47:bb:bb:e1:aa:df:4c:8a:
         66:b5:eb:0c:de:3b:33:93:f1:66:1d:15:57:29:05:00:40:00:
         18:dc:ac:05:4e:fe:e0:7c:cd:78:0d:fd:92:7b:20:28:f5:fb:
         9c:c8:4e:e4:9b:5d:8b:60:31:58:b6:b0:a2:47:64:bf:d4:13:
         b7:c0:f2:9d:79:d6:f5:80:60:ed:5b:32:a7:b2:ec:ab:f9:d8:
         04:ac:6a:c0:ea:cf:d4:7e:0e:69:10:b8:8f:31:d8:06:bc:c9:
         0a:6e:11:fa:0c:d0:af:49:13:a4:e7:6f:a3:64:45:fb:3b:b6:
         ac:25:cf:a0:7a:2e:28:b3:b2:aa:7a:da:bb:78:37:50:3d:d9:
         d3:fd:0b:80:ed:f6:51:60:08:fd:07:9b:b8:c4:30:5d:7b:f7:
         18:a3:08:49:fe:fe:22:cc:a5:d1:06:1c:7b:ca:15:b3:ff:52:
         60:31:bb:b7
-----BEGIN CERTIFICATE-----
MIIDzTCCArWgAwIBAgIBATANBgkqhkiG9w0BAQsFADCBgjELMAkGA1UEBhMCR1Ix
FTATBgNVBAgMDFRoZXNzYWxvbmlraTEVMBMGA1UEBwwMVGhlc3NhbG9uaWtpMRgw
FgYDVQQKDA9FeGFtcGxlIENvbXBhbnkxFTATBgNVBAsMDEV4YW1wbGUgRGV2czEU
MBIGA1UEAwwLZXhhbXBsZS5jb20wHhcNMTgwMzAzMjM1MTIwWhcNMTkwMzAzMjM1
MTIwWjBrMQswCQYDVQQGEwJHUjEVMBMGA1UECAwMVGhlc3NhbG9uaWtpMRMwEQYD
VQQKDApFeGFtcGUubHRkMRowGAYDVQQLDBFEZXZzIEV4YW1wbGVzLmx0ZDEUMBIG
A1UEAwwLZXhhbXBsZS5jb20wggEiMA0GCSqGSIb3DQEBAQUAA4IBDwAwggEKAoIB
AQD0wk+yRE+bfEiGeSQW+c2yQ/hUu5EY+XvtUos8WcYYLHKHwOiWvmFtILaVQAke
0w/0NBIhdTQ5Q9Eg9a4KouVlaSbHIjBLEnIUeLmBgzEQckgQt2569LoKsjHTEpCL
/vtXi+BTWq9OKL6KHxVQtfZ0KCNnEhsBJRFneH34OIgt3AUZnYXX3VXuskZTGAHB
m5eKepUsoeAHS4WOYNFFEqeuvUOf2SY8TFY2g7YBP1PUXwFuUmyrPRoTRjhcv6fG
FmRYRSRDWS6AIdXbaO9R7w83vPUhbR4Zj7tkXlLBywbMuAjM98zQJDQlXPbmgpLP
YYBawlgYsmkxi+TIqZdWUqGrAgMBAAGjZDBiMAkGA1UdEwQCMAAwNgYDVR0RBC8w
LYIPd3d3LmV4YW1wbGUuY29tgg9hcGkuZXhhbXBsZS5jb22CCWxvY2FsaG9zdDAd
BgNVHQ4EFgQUWSTDTqlacWxw3LdH2Y2WgyxQEsswDQYJKoZIhvcNAQELBQADggEB
AJ2Qz54fgYoFo1DycdyQE1C2co4Jk2YPsw7ZwJQEeHSnkoQv22UcoTU/UOKaHrzI
7SNPY7adeSuZnzH8HBFjnDbjW1YoOrYxp/ybRjnEqJO9OCpHu7vhqt9Mima16wze
OzOT8WYdFVcpBQBAABjcrAVO/uB8zXgN/ZJ7ICj1+5zITuSbXYtgMVi2sKJHZL/U
E7fA8p151vWAYO1bMqey7Kv52ASsasDqz9R+DmkQuI8x2Aa8yQpuEfoM0K9JE6Tn
b6NkRfs7tqwlz6B6Liizsqp62rt4N1A92dP9C4Dt9lFgCP0Hm7jEMF179xijCEn+
/iLMpdEGHHvKFbP/UmAxu7c=
-----END CERTIFICATE-----
