-----BEGIN CERTIFICATE-----
MIIDujCCAqKgAwIBAgIJAN3B/HKgz9RmMA0GCSqGSIb3DQEBCwUAMIGDMQswCQYD
VQQGEwJHUjEVMBMGA1UECAwMVGhlc3NhbG9uaWtpMRUwEwYDVQQHDAxUaGVzc2Fs
b25pa2kxFzAVBgNVBAoMDlBhcmFwZW50ZSBTTVBDMRkwFwYDVQQLDBAxOC0yNCBE
ZXZlbG9wZXJzMRIwEAYDVQQDDAlwYXJhLTUuZ3IwHhcNMTgwMzAyMTE0MTIyWhcN
MjAwMzAxMTE0MTIyWjCBgzELMAkGA1UEBhMCR1IxFTATBgNVBAgMDFRoZXNzYWxv
bmlraTEVMBMGA1UEBwwMVGhlc3NhbG9uaWtpMRcwFQYDVQQKDA5QYXJhcGVudGUg
U01QQzEZMBcGA1UECwwQMTgtMjQgRGV2ZWxvcGVyczESMBAGA1UEAwwJcGFyYS01
LmdyMIIBIjANBgkqhkiG9w0BAQEFAAOCAQ8AMIIBCgKCAQEA08VZ/uzPDWwUbliE
U8b5KllNJ2MEndEvP5ZAlIy0C03x1Swqh+KP68xfhadmArygpbLdpOAnTkObrp86
/jYdyWS5jK1xtgGkOWhG9FJjeeh2feLAG1hiQJ8Tv/oUfYtPgexifp7YghXYyHRI
Uz2DPvh853ejgxPA32ohaspy3LGscSQ9V+9XoVT7QLyqd6rYU2jVnUGlEQEzT5Ew
oWo4kn/r40QZ0540XJUbbFU0dslgJRY+veYTAXyFPQ1EDTafrw2TSswO5QobtoPv
Tw6Afct3/TEaRWWc9Rt//fA+FTWAez5gz4GRYp0rCJkIrBY7kRzFLdf599uoTfL1
3SS9YwIDAQABoy8wLTAMBgNVHRMEBTADAQH/MB0GA1UdDgQWBBQPfLCdDhyWv1ni
78TpkPnoZ0rUDzANBgkqhkiG9w0BAQsFAAOCAQEAB0T5fMG0+Rx6vIk01TrmSPIW
1STMayig8VYhnim+h/9IyDwVW+MBZRMFRoYUFMtKkydwpCvhdc2J6qksSER0A7+G
hCt84XJHPlA/Sp/Fyp6ydQWo/tUPzcX5E6DirT37zb4koRcz1Ld/AHShRoNMijeT
ex2TG0QE9DSRrhBDFvJDXOOKfXdxxYscg7meg5uZe9NsBw2BcgI1kRJdjFVZ21sQ
Af4DlQMbNwZViwgpebWhEU67EnQG6OId07WmN7327TTXZArTrpIcM0ObOWimvHtX
RvJ3XzPAwpcUj9YED4fplTMubq+gKDhZVDCvwQvAa7VFB8jXdwdt/o5PDnbxtA==
-----END CERTIFICATE-----
Certificate:
    Data:
        Version: 3 (0x2)
        Serial Number: 1 (0x1)
    Signature Algorithm: sha256WithRSAEncryption
        Issuer: C=GR, ST=Thessaloniki, L=Thessaloniki, O=Parapente SMPC, OU=18-24 Developers, CN=para-5.gr
        Validity
            Not Before: Mar  2 12:01:01 2018 GMT
            Not After : Mar  2 12:01:01 2019 GMT
        Subject: C=GR, ST=Central Macedonia, O=18-24 Travel, OU=18-24 Developers, CN=meion6.eu
        Subject Public Key Info:
            Public Key Algorithm: rsaEncryption
                Public-Key: (2048 bit)
                Modulus:
                    00:93:09:b9:19:f4:b5:51:0b:fe:6a:bb:fb:1f:00:
                    e0:a7:02:f4:30:7c:dd:d6:83:21:45:1f:d6:0c:7d:
                    8b:94:66:df:92:7b:6d:7f:a1:48:c3:ef:f0:5a:43:
                    5e:90:38:8c:d1:f9:34:61:33:62:54:80:c6:d7:49:
                    a9:e4:b4:c8:19:f4:14:16:99:03:88:b7:c1:82:82:
                    26:3f:04:cb:02:f5:cf:19:68:f8:00:a6:9b:51:99:
                    96:6e:1e:e7:27:47:40:2b:43:05:ac:c3:49:0e:54:
                    a8:c6:5b:54:0b:ad:1d:a3:04:f0:4e:94:d2:77:40:
                    ad:16:3d:d9:e5:d9:53:82:fb:82:d4:a7:61:51:79:
                    bf:22:b7:61:0e:a1:00:47:04:b7:7d:45:90:fc:68:
                    59:5e:6f:fd:1b:03:19:32:85:26:2b:e4:0d:dc:ce:
                    fc:7f:1c:ab:63:5f:c8:45:2f:3e:86:dc:fb:fe:0a:
                    22:b3:23:c7:bb:0a:5b:0a:cf:77:13:6b:d2:04:2e:
                    ae:46:64:a9:19:48:15:e6:50:20:d7:c1:f2:f6:b6:
                    f7:c6:08:16:f9:b3:ad:cd:92:58:a6:0d:89:f2:6b:
                    47:f3:bb:f1:4b:cd:5d:91:6b:d8:48:a5:1b:69:af:
                    2d:8b:ca:ba:26:e5:bc:2a:34:ec:55:d9:51:81:f5:
                    9c:97
                Exponent: 65537 (0x10001)
        X509v3 extensions:
            X509v3 Basic Constraints: 
                CA:FALSE
            X509v3 Subject Alternative Name: 
                DNS:www.18-24.mean, DNS:18-24.mean, DNS:api.18-24.mean, DNS:localhost, DNS:api.localhost, DNS:api.meion6.eu, DNS:www.meion6.eu
            X509v3 Subject Key Identifier: 
                FE:72:EF:C8:6E:B8:6C:24:42:F2:73:DA:07:DF:52:6D:E2:19:BB:10
    Signature Algorithm: sha256WithRSAEncryption
         32:11:1e:da:b9:5c:69:a8:73:02:18:41:7c:61:ff:5b:c6:1e:
         df:90:82:da:d6:5d:de:1c:34:7a:a3:3f:2f:0b:40:9f:d0:d7:
         cb:8c:98:68:3f:bb:07:65:b2:d6:ec:0b:94:6e:d9:4d:77:31:
         96:9b:2c:b4:78:ac:59:b8:e1:66:24:f4:7e:e4:8e:88:ca:57:
         43:c1:92:8d:30:be:55:56:3e:3c:20:52:e2:ce:fb:79:23:18:
         43:9e:02:de:fd:1c:d8:b0:2f:e0:3f:9b:88:65:09:bf:e5:f0:
         06:31:bc:c2:31:2b:cf:4c:f3:b8:21:34:07:c8:aa:9c:33:7b:
         61:9d:e1:0b:8f:65:4f:30:da:2b:58:f7:12:eb:aa:74:fe:d9:
         96:6e:d4:b9:22:bd:4a:da:8d:d9:49:c0:02:3b:b4:57:09:3e:
         ac:d0:05:af:ae:33:e7:38:ba:f2:56:15:2e:ab:a4:56:d3:8c:
         17:b0:d3:80:4a:da:e7:3f:21:5e:ad:b9:03:09:11:6e:f7:77:
         de:49:09:bb:25:77:74:79:ec:94:c2:17:98:9b:38:07:83:69:
         23:90:8c:67:6e:ce:a4:ae:d0:a4:5f:02:3c:cc:8f:79:d2:94:
         9e:7c:01:f0:2f:f7:37:c8:03:5e:1c:cd:9c:aa:5c:ae:fa:9e:
         3c:a3:cf:c2
-----BEGIN CERTIFICATE-----
MIIECzCCAvOgAwIBAgIBATANBgkqhkiG9w0BAQsFADCBgzELMAkGA1UEBhMCR1Ix
FTATBgNVBAgMDFRoZXNzYWxvbmlraTEVMBMGA1UEBwwMVGhlc3NhbG9uaWtpMRcw
FQYDVQQKDA5QYXJhcGVudGUgU01QQzEZMBcGA1UECwwQMTgtMjQgRGV2ZWxvcGVy
czESMBAGA1UEAwwJcGFyYS01LmdyMB4XDTE4MDMwMjEyMDEwMVoXDTE5MDMwMjEy
MDEwMVowbzELMAkGA1UEBhMCR1IxGjAYBgNVBAgMEUNlbnRyYWwgTWFjZWRvbmlh
MRUwEwYDVQQKDAwxOC0yNCBUcmF2ZWwxGTAXBgNVBAsMEDE4LTI0IERldmVsb3Bl
cnMxEjAQBgNVBAMMCW1laW9uNi5ldTCCASIwDQYJKoZIhvcNAQEBBQADggEPADCC
AQoCggEBAJMJuRn0tVEL/mq7+x8A4KcC9DB83daDIUUf1gx9i5Rm35J7bX+hSMPv
8FpDXpA4jNH5NGEzYlSAxtdJqeS0yBn0FBaZA4i3wYKCJj8EywL1zxlo+ACmm1GZ
lm4e5ydHQCtDBazDSQ5UqMZbVAutHaME8E6U0ndArRY92eXZU4L7gtSnYVF5vyK3
YQ6hAEcEt31FkPxoWV5v/RsDGTKFJivkDdzO/H8cq2NfyEUvPobc+/4KIrMjx7sK
WwrPdxNr0gQurkZkqRlIFeZQINfB8va298YIFvmzrc2SWKYNifJrR/O78UvNXZFr
2EilG2mvLYvKuiblvCo07FXZUYH1nJcCAwEAAaOBnDCBmTAJBgNVHRMEAjAAMG0G
A1UdEQRmMGSCDnd3dy4xOC0yNC5tZWFuggoxOC0yNC5tZWFugg5hcGkuMTgtMjQu
bWVhboIJbG9jYWxob3N0gg1hcGkubG9jYWxob3N0gg1hcGkubWVpb242LmV1gg13
d3cubWVpb242LmV1MB0GA1UdDgQWBBT+cu/IbrhsJELyc9oH31Jt4hm7EDANBgkq
hkiG9w0BAQsFAAOCAQEAMhEe2rlcaahzAhhBfGH/W8Ye35CC2tZd3hw0eqM/LwtA
n9DXy4yYaD+7B2Wy1uwLlG7ZTXcxlpsstHisWbjhZiT0fuSOiMpXQ8GSjTC+VVY+
PCBS4s77eSMYQ54C3v0c2LAv4D+biGUJv+XwBjG8wjErz0zzuCE0B8iqnDN7YZ3h
C49lTzDaK1j3EuuqdP7Zlm7UuSK9StqN2UnAAju0Vwk+rNAFr64z5zi68lYVLquk
VtOMF7DTgEra5z8hXq25AwkRbvd33kkJuyV3dHnslMIXmJs4B4NpI5CMZ27OpK7Q
pF8CPMyPedKUnnwB8C/3N8gDXhzNnKpcrvqePKPPwg==
-----END CERTIFICATE-----
