Certificate:
    Data:
        Version: 3 (0x2)
        Serial Number: 1 (0x1)
    Signature Algorithm: sha256WithRSAEncryption
        Issuer: C=GR, ST=Thessaloniki, L=Thessaloniki, O=Parapente SMPC, OU=18-24 Developers, CN=para-5.gr
        Validity
            Not Before: Feb 15 15:11:52 2018 GMT
            Not After : Feb 15 15:11:52 2019 GMT
        Subject: C=GR, ST=Central Macedonia, O=18-24 Travel, OU=18-24 Developers, CN=meion6.eu
        Subject Public Key Info:
            Public Key Algorithm: rsaEncryption
                Public-Key: (2048 bit)
                Modulus:
                    00:bf:f1:ca:46:4d:8a:ed:c6:e4:cf:f7:3e:c3:43:
                    cf:5e:24:7d:1e:a2:ae:66:14:54:62:4b:59:10:39:
                    81:25:7e:14:f6:a1:83:e3:9c:0c:62:2b:f0:0c:42:
                    7c:af:57:a4:76:aa:6e:69:1b:21:81:d6:29:50:3b:
                    89:86:b8:e0:07:0d:51:aa:3f:22:b4:0e:41:f3:60:
                    f6:27:0b:13:ac:81:bf:1c:57:f7:52:dc:57:f9:1f:
                    76:70:5a:59:4f:5e:75:b1:65:a8:9d:ee:27:b9:7c:
                    f6:ca:69:96:fd:13:d1:6d:9e:53:9a:3a:1a:ed:b5:
                    8d:f6:d3:fb:4c:78:2e:5e:ee:59:66:fe:ff:d1:e1:
                    5e:88:8b:9a:2a:30:d7:be:15:35:ee:44:3f:e4:a4:
                    93:d7:d9:27:ab:b6:29:1d:f2:53:65:98:06:3a:e7:
                    c4:13:85:14:2c:d6:c5:4b:d1:02:44:86:06:c9:8f:
                    3e:5a:33:53:57:68:b4:08:03:10:34:6e:d9:71:ad:
                    86:65:00:29:7e:ba:e2:58:16:2f:25:56:1a:6b:a4:
                    cf:c0:1b:29:42:d5:44:38:4c:80:a3:88:3a:9d:57:
                    39:7f:5c:27:2f:63:18:0a:3a:62:71:4e:66:4a:bb:
                    49:c7:5d:e7:23:1f:51:a4:40:d4:fa:f0:bc:7f:42:
                    bb:5f
                Exponent: 65537 (0x10001)
        X509v3 extensions:
            X509v3 Basic Constraints: 
                CA:FALSE
            X509v3 Subject Alternative Name: 
                DNS:www.18-24.mean, DNS:18-24.mean, DNS:api.18-24.mean, DNS:localhost, DNS:api.localhost, DNS:api.meion6.eu, DNS:www.meion6.eu
            X509v3 Subject Key Identifier: 
                1E:BC:A4:89:75:4D:0E:F0:E3:02:A4:9F:73:8F:21:74:E6:CA:7F:8A
    Signature Algorithm: sha256WithRSAEncryption
         79:a1:f2:70:aa:4e:9a:94:4c:fd:ff:e2:09:3b:9f:74:ca:f8:
         f1:8b:4b:be:a0:c7:77:35:08:5d:e7:08:03:2f:0c:8b:70:fa:
         23:d1:05:c3:35:f8:dd:f8:33:4b:87:a6:a7:49:07:40:47:91:
         9f:7d:e2:9e:1b:4e:7d:72:70:e5:31:35:e0:e4:fc:7a:f9:ab:
         94:22:de:f6:38:10:50:dd:87:b9:c6:c7:39:2b:dd:8d:c7:69:
         42:17:68:2d:1a:0d:45:e7:8d:6c:b2:78:50:29:9a:11:f9:91:
         4f:c9:ed:e1:0e:41:1c:2d:4f:be:a2:a3:14:00:ab:26:65:a4:
         a2:c4:df:53:4d:d5:83:f1:d2:e5:02:00:80:67:9d:59:10:23:
         c5:04:84:dd:d4:4b:8f:5f:e8:f4:a5:77:f6:9e:d5:a6:bc:5f:
         89:47:d9:93:fd:dc:c4:18:d0:61:f1:51:14:00:24:b7:6c:1c:
         58:84:74:30:f8:62:40:40:fa:a9:2c:16:a3:98:3d:12:fa:6e:
         8a:f2:bf:53:33:ac:43:b5:50:22:71:c2:04:e0:9c:8e:3a:4c:
         0b:cb:c0:31:7d:8b:91:f6:11:75:df:ca:bd:70:94:b1:ec:01:
         26:57:c1:e6:83:72:57:6f:d7:75:26:4d:72:7a:68:eb:e9:d4:
         58:95:d8:a5
-----BEGIN CERTIFICATE-----
MIIECzCCAvOgAwIBAgIBATANBgkqhkiG9w0BAQsFADCBgzELMAkGA1UEBhMCR1Ix
FTATBgNVBAgMDFRoZXNzYWxvbmlraTEVMBMGA1UEBwwMVGhlc3NhbG9uaWtpMRcw
FQYDVQQKDA5QYXJhcGVudGUgU01QQzEZMBcGA1UECwwQMTgtMjQgRGV2ZWxvcGVy
czESMBAGA1UEAwwJcGFyYS01LmdyMB4XDTE4MDIxNTE1MTE1MloXDTE5MDIxNTE1
MTE1MlowbzELMAkGA1UEBhMCR1IxGjAYBgNVBAgMEUNlbnRyYWwgTWFjZWRvbmlh
MRUwEwYDVQQKDAwxOC0yNCBUcmF2ZWwxGTAXBgNVBAsMEDE4LTI0IERldmVsb3Bl
cnMxEjAQBgNVBAMMCW1laW9uNi5ldTCCASIwDQYJKoZIhvcNAQEBBQADggEPADCC
AQoCggEBAL/xykZNiu3G5M/3PsNDz14kfR6irmYUVGJLWRA5gSV+FPahg+OcDGIr
8AxCfK9XpHaqbmkbIYHWKVA7iYa44AcNUao/IrQOQfNg9icLE6yBvxxX91LcV/kf
dnBaWU9edbFlqJ3uJ7l89spplv0T0W2eU5o6Gu21jfbT+0x4Ll7uWWb+/9HhXoiL
miow174VNe5EP+Skk9fZJ6u2KR3yU2WYBjrnxBOFFCzWxUvRAkSGBsmPPlozU1do
tAgDEDRu2XGthmUAKX664lgWLyVWGmukz8AbKULVRDhMgKOIOp1XOX9cJy9jGAo6
YnFOZkq7Scdd5yMfUaRA1PrwvH9Cu18CAwEAAaOBnDCBmTAJBgNVHRMEAjAAMG0G
A1UdEQRmMGSCDnd3dy4xOC0yNC5tZWFuggoxOC0yNC5tZWFugg5hcGkuMTgtMjQu
bWVhboIJbG9jYWxob3N0gg1hcGkubG9jYWxob3N0gg1hcGkubWVpb242LmV1gg13
d3cubWVpb242LmV1MB0GA1UdDgQWBBQevKSJdU0O8OMCpJ9zjyF05sp/ijANBgkq
hkiG9w0BAQsFAAOCAQEAeaHycKpOmpRM/f/iCTufdMr48YtLvqDHdzUIXecIAy8M
i3D6I9EFwzX43fgzS4emp0kHQEeRn33inhtOfXJw5TE14OT8evmrlCLe9jgQUN2H
ucbHOSvdjcdpQhdoLRoNReeNbLJ4UCmaEfmRT8nt4Q5BHC1PvqKjFACrJmWkosTf
U03Vg/HS5QIAgGedWRAjxQSE3dRLj1/o9KV39p7VprxfiUfZk/3cxBjQYfFRFAAk
t2wcWIR0MPhiQED6qSwWo5g9EvpuivK/UzOsQ7VQInHCBOCcjjpMC8vAMX2LkfYR
dd/KvXCUsewBJlfB5oNyV2/XdSZNcnpo6+nUWJXYpQ==
-----END CERTIFICATE-----
