Certificate:
    Data:
        Version: 3 (0x2)
        Serial Number: 1 (0x1)
        Signature Algorithm: sha256WithRSAEncryption
        Issuer: C=GR, ST=Thessaloniki, L=Thessaloniki, O=Localhost, OU=Web Developers, CN=localhost.dev
        Validity
            Not Before: Feb  8 14:09:29 2021 GMT
            Not After : Mar 29 14:09:29 2026 GMT
        Subject: C=GR, ST=Central Macedonia, O=Dev Ops, OU=Full Stack Developers, CN=localhost.io
        Subject Public Key Info:
            Public Key Algorithm: rsaEncryption
                RSA Public-Key: (2048 bit)
                Modulus:
                    00:ac:83:d5:e0:68:6d:fc:be:47:01:0f:4c:26:23:
                    c1:d2:1d:aa:14:4b:21:f7:b5:09:69:ca:a5:58:8c:
                    7e:60:09:90:68:23:f7:af:c1:1c:0d:21:dd:d5:43:
                    c5:cd:fb:3e:0c:31:93:22:cf:a7:e3:58:4c:b2:8c:
                    55:60:02:43:91:77:40:b1:5e:9d:00:b1:e9:b8:1d:
                    95:c0:21:a3:97:65:fa:ce:ce:d3:40:ba:a0:65:a4:
                    7e:0d:b2:d6:8f:08:50:fe:ef:21:7f:12:57:08:b5:
                    cd:6b:0d:eb:51:7b:da:99:cd:5e:09:b8:4b:41:dc:
                    f5:e2:d5:76:cd:e8:54:8d:12:fd:19:47:03:df:72:
                    f2:7d:28:b4:fd:ce:4e:98:e8:34:49:b3:33:74:09:
                    d5:c4:8b:ed:70:ff:f3:cc:c9:b8:61:35:6a:9c:f0:
                    bc:35:a8:0a:24:c1:28:74:0f:38:9e:20:d9:73:cb:
                    06:ce:ff:c4:b1:aa:49:f3:6c:f3:21:75:3d:db:dc:
                    54:2a:d9:ac:b6:16:22:cc:61:c1:82:7c:29:93:a6:
                    02:d8:83:83:57:10:59:aa:13:d5:25:ff:74:37:35:
                    a8:b2:ef:d6:ec:d7:80:d3:04:7f:24:31:d8:67:b3:
                    ff:6d:46:e1:80:f7:77:e6:64:4d:dc:58:6e:14:ef:
                    1b:cb
                Exponent: 65537 (0x10001)
        X509v3 extensions:
            X509v3 Basic Constraints:
                CA:FALSE
            X509v3 Subject Alternative Name:
                DNS:localhost, DNS:api.localhost, DNS:admin.localhost, DNS:front.localhost, DNS:transportation.localhost, DNS:accommodation.localhost, DNS:extras.localhost, DNS:proxy.localhost, DNS:api.local, DNS:admin.local, DNS:front.local, DNS:transportation.local, DNS:accommodation.local, DNS:extras.local, DNS:proxy.local
            X509v3 Subject Key Identifier:
                82:0D:93:C8:3C:4B:8C:96:1A:02:F7:33:00:28:EB:64:F3:27:EF:07
    Signature Algorithm: sha256WithRSAEncryption
         9f:73:94:f1:2d:22:c6:dc:f1:4f:56:bd:3c:73:d9:70:24:3c:
         9f:84:99:ed:4c:76:2d:c4:6f:34:76:79:28:42:c2:a9:5a:0b:
         3d:3c:60:61:20:d0:d3:36:a8:0e:65:4f:79:99:41:b8:47:8d:
         be:41:1d:05:45:a4:f3:cc:04:bf:eb:3f:c8:3e:f0:63:76:6e:
         6a:ce:da:80:23:20:f0:37:8a:d3:5b:fe:26:4b:61:66:e9:c3:
         66:47:a4:3e:07:d2:a0:24:da:d5:9f:78:ee:05:fa:d7:fd:f1:
         25:c1:fe:e9:d0:9e:53:9e:88:d3:d9:4f:57:38:30:1a:5f:e2:
         19:a6:f2:6f:20:55:7b:ab:08:18:e0:c0:cb:e0:eb:82:06:ec:
         16:1b:90:ee:f5:f6:b5:3c:88:24:70:35:31:84:e1:9a:26:5d:
         05:d7:9e:4e:ad:87:c1:63:a3:21:35:05:97:a8:f2:12:c5:17:
         78:66:37:43:64:da:2d:cf:fe:31:1b:be:6a:9b:f0:e1:62:7d:
         8a:3f:91:89:3a:14:dd:45:97:55:62:ad:d0:07:b9:56:78:86:
         7c:f4:e5:f0:26:40:0c:a4:73:7c:eb:ec:90:f5:10:9c:10:ea:
         a1:ff:4e:45:04:62:97:a5:3e:bc:00:b5:af:24:a6:02:33:d4:
         33:ed:f6:bc
-----BEGIN CERTIFICATE-----
MIIEqzCCA5OgAwIBAgIBATANBgkqhkiG9w0BAQsFADCBgDELMAkGA1UEBhMCR1Ix
FTATBgNVBAgMDFRoZXNzYWxvbmlraTEVMBMGA1UEBwwMVGhlc3NhbG9uaWtpMRIw
EAYDVQQKDAlMb2NhbGhvc3QxFzAVBgNVBAsMDldlYiBEZXZlbG9wZXJzMRYwFAYD
VQQDDA1sb2NhbGhvc3QuZGV2MB4XDTIxMDIwODE0MDkyOVoXDTI2MDMyOTE0MDky
OVowcjELMAkGA1UEBhMCR1IxGjAYBgNVBAgMEUNlbnRyYWwgTWFjZWRvbmlhMRAw
DgYDVQQKDAdEZXYgT3BzMR4wHAYDVQQLDBVGdWxsIFN0YWNrIERldmVsb3BlcnMx
FTATBgNVBAMMDGxvY2FsaG9zdC5pbzCCASIwDQYJKoZIhvcNAQEBBQADggEPADCC
AQoCggEBAKyD1eBobfy+RwEPTCYjwdIdqhRLIfe1CWnKpViMfmAJkGgj96/BHA0h
3dVDxc37PgwxkyLPp+NYTLKMVWACQ5F3QLFenQCx6bgdlcAho5dl+s7O00C6oGWk
fg2y1o8IUP7vIX8SVwi1zWsN61F72pnNXgm4S0Hc9eLVds3oVI0S/RlHA99y8n0o
tP3OTpjoNEmzM3QJ1cSL7XD/88zJuGE1apzwvDWoCiTBKHQPOJ4g2XPLBs7/xLGq
SfNs8yF1PdvcVCrZrLYWIsxhwYJ8KZOmAtiDg1cQWaoT1SX/dDc1qLLv1uzXgNME
fyQx2Gez/21G4YD3d+ZkTdxYbhTvG8sCAwEAAaOCATswggE3MAkGA1UdEwQCMAAw
ggEJBgNVHREEggEAMIH9gglsb2NhbGhvc3SCDWFwaS5sb2NhbGhvc3SCD2FkbWlu
LmxvY2FsaG9zdIIPZnJvbnQubG9jYWxob3N0ghh0cmFuc3BvcnRhdGlvbi5sb2Nh
bGhvc3SCF2FjY29tbW9kYXRpb24ubG9jYWxob3N0ghBleHRyYXMubG9jYWxob3N0
gg9wcm94eS5sb2NhbGhvc3SCCWFwaS5sb2NhbIILYWRtaW4ubG9jYWyCC2Zyb250
LmxvY2FsghR0cmFuc3BvcnRhdGlvbi5sb2NhbIITYWNjb21tb2RhdGlvbi5sb2Nh
bIIMZXh0cmFzLmxvY2Fsggtwcm94eS5sb2NhbDAdBgNVHQ4EFgQUgg2TyDxLjJYa
AvczACjrZPMn7wcwDQYJKoZIhvcNAQELBQADggEBAJ9zlPEtIsbc8U9WvTxz2XAk
PJ+Eme1Mdi3EbzR2eShCwqlaCz08YGEg0NM2qA5lT3mZQbhHjb5BHQVFpPPMBL/r
P8g+8GN2bmrO2oAjIPA3itNb/iZLYWbpw2ZHpD4H0qAk2tWfeO4F+tf98SXB/unQ
nlOeiNPZT1c4MBpf4hmm8m8gVXurCBjgwMvg64IG7BYbkO719rU8iCRwNTGE4Zom
XQXXnk6th8FjoyE1BZeo8hLFF3hmN0Nk2i3P/jEbvmqb8OFifYo/kYk6FN1Fl1Vi
rdAHuVZ4hnz05fAmQAykc3zr7JD1EJwQ6qH/TkUEYpelPrwAta8kpgIz1DPt9rw=
-----END CERTIFICATE-----
-----BEGIN CERTIFICATE-----
MIIDvzCCAqegAwIBAgIUSCu4VLMHvOdSsApFVlSoBAMb270wDQYJKoZIhvcNAQEL
BQAwgYAxCzAJBgNVBAYTAkdSMRUwEwYDVQQIDAxUaGVzc2Fsb25pa2kxFTATBgNV
BAcMDFRoZXNzYWxvbmlraTESMBAGA1UECgwJTG9jYWxob3N0MRcwFQYDVQQLDA5X
ZWIgRGV2ZWxvcGVyczEWMBQGA1UEAwwNbG9jYWxob3N0LmRldjAeFw0yMTAyMDgx
MzUzMjJaFw0zMTAyMDYxMzUzMjJaMIGAMQswCQYDVQQGEwJHUjEVMBMGA1UECAwM
VGhlc3NhbG9uaWtpMRUwEwYDVQQHDAxUaGVzc2Fsb25pa2kxEjAQBgNVBAoMCUxv
Y2FsaG9zdDEXMBUGA1UECwwOV2ViIERldmVsb3BlcnMxFjAUBgNVBAMMDWxvY2Fs
aG9zdC5kZXYwggEiMA0GCSqGSIb3DQEBAQUAA4IBDwAwggEKAoIBAQDesf6TzJ4n
GE7YmTugKs2D4WJdRpvQ27DrtI0XOjnOfNgDRd1aBt8IkjyHqa0MyVwut5vh3Rri
AbkspjXpY79BIDSApecq2Km8LDI0q4EisoG0gxk3vzgZ4nBFFf/Z0qukvj/2DbTP
ci/RQHV3Jv07EXzuet4CFQJiWElgBwSxFZDpJHDHraKHTD3h2ASYBSa55SqlAYjq
Vcx3RBHi2+xrXm+7eey78TLMmFYetKJ0uHaEJp5Qs5ppiOwoepvzkqYYdnu/LIcv
T4Vjr0+ewj424UtOgWb5fXsGqgVuhp76D6pXX5+dwbOXq0SsFZgCrz7/gsssUTGD
luJg3fkdUD1bAgMBAAGjLzAtMAwGA1UdEwQFMAMBAf8wHQYDVR0OBBYEFB2A9wjd
CjrxCVqdpR/evjs7gCy3MA0GCSqGSIb3DQEBCwUAA4IBAQBoj8Bc+6EqEIuGW4mE
gng6XOgQwyHjyxQnAeDMSFw9mzjkosaeeEuEo4YjCvPsrOsmUf6ry8LrSGhAMRmS
iBRnv6+OBpe30HGf8wDNXq5PbNnxyofW70215rzQEa8+EhDKUTyHTVEfeY0f+LHM
7bWMyspRNV4CdywjDJEobyM/l2y4SoykC+ByIBFDvH7CoAcRhqp551Hv7jXptq5k
C7zzHQdz5z+JzOcKZrGmJ5qHkk0mGORh8LClXfwEavPVhEkK12Uz1l8q3piw9tY+
TC9baVgihu/C/nVlM0pvywE7sQdfl+6mDfC7dQMhepdU8xnj2GT1jzdXrMInPsos
kF7T
-----END CERTIFICATE-----
