Certificate:
    Data:
        Version: 3 (0x2)
        Serial Number: 1 (0x1)
        Signature Algorithm: sha256WithRSAEncryption
        Issuer: C=GR, ST=Thessaloniki, L=Thessaloniki, O=Localhost, OU=Web Developers, CN=localhost.dev
        Validity
            Not Before: Mar  5 08:38:00 2019 GMT
            Not After : Mar  4 08:38:00 2021 GMT
        Subject: C=GR, ST=Central Macedonia, O=Dev Ops, OU=Full Stack Developers, CN=localhost.dev
        Subject Public Key Info:
            Public Key Algorithm: rsaEncryption
                RSA Public-Key: (2048 bit)
                Modulus:
                    00:ca:e7:97:3a:42:9e:a5:7e:4b:f9:34:22:d7:38:
                    fd:63:ff:9d:1d:5c:92:04:f4:4c:5b:34:a9:a0:b0:
                    1f:84:29:26:90:7e:22:67:b1:b2:8d:cd:7a:37:fe:
                    4f:28:52:8b:ee:cf:46:2a:bc:f8:1e:33:f8:e7:a5:
                    ad:94:46:01:79:79:5d:2f:ee:ad:d8:23:a5:94:cc:
                    6b:d7:53:41:14:87:0f:1e:24:e0:c6:a0:9c:01:52:
                    8b:fd:ec:27:21:ce:d7:76:a9:e4:58:f3:97:2e:45:
                    75:5a:5f:b7:cf:31:42:1f:d8:3c:20:17:e4:2c:59:
                    7e:2d:60:f9:18:a8:fc:08:71:ab:eb:83:0b:e5:ff:
                    af:78:33:27:45:b7:c2:bf:13:3e:91:64:e8:74:93:
                    3c:65:f1:f1:c4:d9:c2:3e:61:5f:6e:3b:93:88:a5:
                    f9:48:e6:81:cd:b6:cc:e5:75:d1:29:40:0c:9e:c6:
                    a8:b3:c2:01:02:6a:9d:db:d5:e3:15:ac:b2:03:57:
                    f8:c3:e1:1c:13:01:19:7a:29:8a:f7:b9:b0:08:b6:
                    d4:72:9c:b2:ec:8f:2a:b1:f0:0b:7c:f3:a7:f4:11:
                    7a:a0:e7:5c:f4:e2:14:27:d9:4a:d1:1f:8a:08:87:
                    5a:1a:b9:c7:5a:d6:cc:c1:b7:15:a5:ce:7a:bc:57:
                    dd:fb
                Exponent: 65537 (0x10001)
        X509v3 extensions:
            X509v3 Basic Constraints: 
                CA:FALSE
            X509v3 Subject Alternative Name: 
                DNS:localhost, DNS:api.localhost, DNS:admin.localhost, DNS:transportation.localhost, DNS:accommodation.localhost
            X509v3 Subject Key Identifier: 
                06:5C:C3:A8:C0:A8:DF:3F:E6:0F:2B:1B:D8:0A:5D:79:F1:8A:15:84
    Signature Algorithm: sha256WithRSAEncryption
         8a:8b:a6:e4:47:07:1d:6b:3c:04:36:74:0b:fd:49:6d:34:a0:
         ff:47:e8:57:09:bc:fd:3b:84:ab:2f:43:e7:43:e0:42:29:b7:
         49:56:9d:6d:df:9e:98:60:0f:e8:ac:83:a0:65:b6:64:99:3d:
         ae:89:51:33:7f:75:29:f4:02:5e:b5:3c:d6:61:50:52:08:dc:
         fb:2c:b2:4e:6d:fd:22:71:83:84:c2:1b:94:fb:d3:6d:2a:26:
         09:d5:e5:a0:1d:9b:aa:fe:0e:a5:e6:dd:64:73:57:c8:7e:1f:
         d0:7b:73:d0:7f:ff:56:c0:ed:51:5a:65:41:34:29:a9:7f:1a:
         e7:a6:be:b0:63:17:08:7f:c7:12:a6:56:13:19:45:b1:93:3a:
         7d:8b:8d:81:5d:53:62:5f:c8:8c:6b:89:78:9a:96:38:63:8b:
         10:d0:b3:2f:59:a2:66:9c:e9:7f:35:5d:dc:12:ea:9b:3f:5a:
         6b:f4:ab:5e:55:cf:51:a2:8a:ea:55:76:89:f0:eb:7b:47:05:
         1e:e8:eb:f5:b5:18:7b:b9:1f:2e:1a:d7:9a:51:c6:f6:89:17:
         8e:37:e4:f6:e4:17:64:a8:cf:8b:9f:10:b3:7f:78:c8:87:c4:
         48:9b:d3:04:bd:f0:1c:da:26:e0:58:6e:c1:9e:cf:59:36:72:
         b4:35:93:10
-----BEGIN CERTIFICATE-----
MIIEBjCCAu6gAwIBAgIBATANBgkqhkiG9w0BAQsFADCBgDELMAkGA1UEBhMCR1Ix
FTATBgNVBAgMDFRoZXNzYWxvbmlraTEVMBMGA1UEBwwMVGhlc3NhbG9uaWtpMRIw
EAYDVQQKDAlMb2NhbGhvc3QxFzAVBgNVBAsMDldlYiBEZXZlbG9wZXJzMRYwFAYD
VQQDDA1sb2NhbGhvc3QuZGV2MB4XDTE5MDMwNTA4MzgwMFoXDTIxMDMwNDA4Mzgw
MFowczELMAkGA1UEBhMCR1IxGjAYBgNVBAgMEUNlbnRyYWwgTWFjZWRvbmlhMRAw
DgYDVQQKDAdEZXYgT3BzMR4wHAYDVQQLDBVGdWxsIFN0YWNrIERldmVsb3BlcnMx
FjAUBgNVBAMMDWxvY2FsaG9zdC5kZXYwggEiMA0GCSqGSIb3DQEBAQUAA4IBDwAw
ggEKAoIBAQDK55c6Qp6lfkv5NCLXOP1j/50dXJIE9ExbNKmgsB+EKSaQfiJnsbKN
zXo3/k8oUovuz0YqvPgeM/jnpa2URgF5eV0v7q3YI6WUzGvXU0EUhw8eJODGoJwB
Uov97Cchztd2qeRY85cuRXVaX7fPMUIf2DwgF+QsWX4tYPkYqPwIcavrgwvl/694
MydFt8K/Ez6RZOh0kzxl8fHE2cI+YV9uO5OIpflI5oHNtszlddEpQAyexqizwgEC
ap3b1eMVrLIDV/jD4RwTARl6KYr3ubAIttRynLLsjyqx8At886f0EXqg51z04hQn
2UrRH4oIh1oaucda1szBtxWlznq8V937AgMBAAGjgZYwgZMwCQYDVR0TBAIwADBn
BgNVHREEYDBegglsb2NhbGhvc3SCDWFwaS5sb2NhbGhvc3SCD2FkbWluLmxvY2Fs
aG9zdIIYdHJhbnNwb3J0YXRpb24ubG9jYWxob3N0ghdhY2NvbW1vZGF0aW9uLmxv
Y2FsaG9zdDAdBgNVHQ4EFgQUBlzDqMCo3z/mDysb2ApdefGKFYQwDQYJKoZIhvcN
AQELBQADggEBAIqLpuRHBx1rPAQ2dAv9SW00oP9H6FcJvP07hKsvQ+dD4EIpt0lW
nW3fnphgD+isg6BltmSZPa6JUTN/dSn0Al61PNZhUFII3Psssk5t/SJxg4TCG5T7
020qJgnV5aAdm6r+DqXm3WRzV8h+H9B7c9B//1bA7VFaZUE0Kal/GuemvrBjFwh/
xxKmVhMZRbGTOn2LjYFdU2JfyIxriXialjhjixDQsy9Zomac6X81XdwS6ps/Wmv0
q15Vz1GiiupVdonw63tHBR7o6/W1GHu5Hy4a15pRxvaJF4435PbkF2Soz4ufELN/
eMiHxEib0wS98BzaJuBYbsGez1k2crQ1kxA=
-----END CERTIFICATE-----
-----BEGIN CERTIFICATE-----
MIIDvzCCAqegAwIBAgIUJHdq6tz239FofBLa0FvdQrwBItowDQYJKoZIhvcNAQEL
BQAwgYAxCzAJBgNVBAYTAkdSMRUwEwYDVQQIDAxUaGVzc2Fsb25pa2kxFTATBgNV
BAcMDFRoZXNzYWxvbmlraTESMBAGA1UECgwJTG9jYWxob3N0MRcwFQYDVQQLDA5X
ZWIgRGV2ZWxvcGVyczEWMBQGA1UEAwwNbG9jYWxob3N0LmRldjAeFw0xOTAzMDUw
ODM3MDRaFw0yMTAzMDQwODM3MDRaMIGAMQswCQYDVQQGEwJHUjEVMBMGA1UECAwM
VGhlc3NhbG9uaWtpMRUwEwYDVQQHDAxUaGVzc2Fsb25pa2kxEjAQBgNVBAoMCUxv
Y2FsaG9zdDEXMBUGA1UECwwOV2ViIERldmVsb3BlcnMxFjAUBgNVBAMMDWxvY2Fs
aG9zdC5kZXYwggEiMA0GCSqGSIb3DQEBAQUAA4IBDwAwggEKAoIBAQDTxVn+7M8N
bBRuWIRTxvkqWU0nYwSd0S8/lkCUjLQLTfHVLCqH4o/rzF+Fp2YCvKClst2k4CdO
Q5uunzr+Nh3JZLmMrXG2AaQ5aEb0UmN56HZ94sAbWGJAnxO/+hR9i0+B7GJ+ntiC
FdjIdEhTPYM++Hznd6ODE8DfaiFqynLcsaxxJD1X71ehVPtAvKp3qthTaNWdQaUR
ATNPkTChajiSf+vjRBnTnjRclRtsVTR2yWAlFj695hMBfIU9DUQNNp+vDZNKzA7l
Chu2g+9PDoB9y3f9MRpFZZz1G3/98D4VNYB7PmDPgZFinSsImQisFjuRHMUt1/n3
26hN8vXdJL1jAgMBAAGjLzAtMAwGA1UdEwQFMAMBAf8wHQYDVR0OBBYEFA98sJ0O
HJa/WeLvxOmQ+ehnStQPMA0GCSqGSIb3DQEBCwUAA4IBAQAYQgFHWVbIi8unbmfT
+XPX4W5if0KB0MRFzPIFCzzzY0SoCKBH4HifbVGC9RoMA/kafOlbW1uZfyn5it0G
Zm6eR/gdqQ2JMHKPy2mwplHMbkCExZI8fXoTAMMJT7w8czhgOHzEUySRP88dC2mb
avHNeD+Rd8ryDBtx2PoySi8S7iPfNHTaw1xh7EKoE+cJ8MIvbl7voycfINeZ77D6
jNlu0DOUkC5iODJcUGIP+WtRGcCIhtapnBzl0ORT51Sk9T+i0Amx6kx02vCOk2LG
34SFWFCi2N8J9skjqvLmUzwSxVQl/Bm3Um7R6pTKk30hgPehNs9mGiz2NwYt+EIx
Evjz
-----END CERTIFICATE-----
